target datalayout = "e-m:e-p270:32:32-p271:32:32-p272:64:64-i64:64-i128:128-f80:128-n8:16:32:64-S128"
target triple = "x86_64-pc-linux-gnu"

%struct.strbuf = type { i64, i64, ptr }
%struct.multi_pack_index = type { ptr, ptr, i64, ptr, ptr, i64, i32, i8, i8, i8, i32, i32, i32, i32, i32, ptr, i64, ptr, i64, ptr, ptr, ptr, ptr, i64, ptr, i64, ptr, i32, i32, ptr, ptr, ptr, [0 x i8] }

@__const.lookup_multi_pack_index.cur_path_real = private unnamed_addr constant %struct.strbuf { i64 0, i64 0, ptr @strbuf_slopbuf }, align 8

; Function Attrs: nounwind uwtable
define internal ptr @lookup_multi_pack_index(ptr noundef %0, ptr noundef %1) #0 {
  %3 = alloca ptr, align 8
  %4 = alloca ptr, align 8
  %5 = alloca ptr, align 8
  %6 = alloca ptr, align 8
  %7 = alloca ptr, align 8
  %8 = alloca %struct.strbuf, align 8
  store ptr %0, ptr %3, align 8, !tbaa !4
  store ptr %1, ptr %4, align 8, !tbaa !9
  call void @llvm.lifetime.start.p0(i64 8, ptr %5) #11
  store ptr null, ptr %5, align 8, !tbaa !48
  call void @llvm.lifetime.start.p0(i64 8, ptr %6) #11
  call void @llvm.lifetime.start.p0(i64 8, ptr %7) #11
  %9 = load ptr, ptr %4, align 8, !tbaa !9
  %10 = call ptr @real_pathdup(ptr noundef %9, i32 noundef 1)
  store ptr %10, ptr %7, align 8, !tbaa !9
  call void @llvm.lifetime.start.p0(i64 24, ptr %8) #11
  call void @llvm.memcpy.p0.p0.i64(ptr align 8 %8, ptr align 8 @__const.lookup_multi_pack_index.cur_path_real, i64 24, i1 false)
  %11 = load ptr, ptr %3, align 8, !tbaa !4
  %12 = load ptr, ptr %7, align 8, !tbaa !9
  %13 = call ptr @find_odb(ptr noundef %11, ptr noundef %12)
  %14 = load ptr, ptr %3, align 8, !tbaa !4
  %15 = call ptr @get_multi_pack_index(ptr noundef %14)
  store ptr %15, ptr %6, align 8, !tbaa !48
  br label %16

16:                                               ; preds = %32, %2
  %17 = load ptr, ptr %6, align 8, !tbaa !48
  %18 = icmp ne ptr %17, null
  br i1 %18, label %19, label %36

19:                                               ; preds = %16
  %20 = load ptr, ptr %6, align 8, !tbaa !48
  %21 = getelementptr inbounds nuw %struct.multi_pack_index, ptr %20, i32 0, i32 32
  %22 = getelementptr inbounds [0 x i8], ptr %21, i64 0, i64 0
  %23 = call ptr @strbuf_realpath(ptr noundef %8, ptr noundef %22, i32 noundef 1)
  %24 = load ptr, ptr %7, align 8, !tbaa !9
  %25 = getelementptr inbounds nuw %struct.strbuf, ptr %8, i32 0, i32 2
  %26 = load ptr, ptr %25, align 8, !tbaa !46
  %27 = call i32 @strcmp(ptr noundef %24, ptr noundef %26) #13
  %28 = icmp ne i32 %27, 0
  br i1 %28, label %31, label %29

29:                                               ; preds = %19
  %30 = load ptr, ptr %6, align 8, !tbaa !48
  store ptr %30, ptr %5, align 8, !tbaa !48
  br label %37

31:                                               ; preds = %19
  br label %32

32:                                               ; preds = %31
  %33 = load ptr, ptr %6, align 8, !tbaa !48
  %34 = getelementptr inbounds nuw %struct.multi_pack_index, ptr %33, i32 0, i32 0
  %35 = load ptr, ptr %34, align 8, !tbaa !48
  store ptr %35, ptr %6, align 8, !tbaa !48
  br label %16, !llvm.loop !113

36:                                               ; preds = %16
  br label %37

37:                                               ; preds = %36, %29
  %38 = load ptr, ptr %7, align 8, !tbaa !9
  call void @free(ptr noundef %38) #11
  call void @strbuf_release(ptr noundef %8)
  %39 = load ptr, ptr %5, align 8, !tbaa !48
  call void @llvm.lifetime.end.p0(i64 24, ptr %8) #11
  call void @llvm.lifetime.end.p0(i64 8, ptr %7) #11
  call void @llvm.lifetime.end.p0(i64 8, ptr %6) #11
  call void @llvm.lifetime.end.p0(i64 8, ptr %5) #11
  ret ptr %39
}