; Function Attrs: nounwind uwtable
define internal fastcc ptr @lookup_multi_pack_index(ptr noundef %0, ptr noundef %1) unnamed_addr #0 {
  %3 = alloca %struct.strbuf, align 8
  %4 = tail call ptr @real_pathdup(ptr noundef %1, i32 noundef 1) #19
  call void @llvm.lifetime.start.p0(i64 24, ptr nonnull %3) #19
  call void @llvm.memcpy.p0.p0.i64(ptr noundef nonnull align 8 dereferenceable(24) %3, ptr noundef nonnull align 8 dereferenceable(24) @__const.lookup_multi_pack_index.cur_path_real, i64 24, i1 false)
  %5 = tail call ptr @find_odb(ptr noundef %0, ptr noundef %4) #19
  %6 = tail call ptr @get_multi_pack_index(ptr noundef %0) #19
  %.not13 = icmp eq ptr %6, null
  br i1 %.not13, label %._crit_edge, label %.lr.ph

.lr.ph:                                           ; preds = %2
  %7 = getelementptr inbounds nuw i8, ptr %3, i64 16
  br label %8

8:                                                ; preds = %.lr.ph, %13
  %.01114 = phi ptr [ %6, %.lr.ph ], [ %14, %13 ]
  %9 = getelementptr inbounds nuw i8, ptr %.01114, i64 208
  %10 = call ptr @strbuf_realpath(ptr noundef nonnull %3, ptr noundef nonnull %9, i32 noundef 1) #19
  %11 = load ptr, ptr %7, align 8, !tbaa !38
  %12 = call i32 @strcmp(ptr noundef nonnull dereferenceable(1) %4, ptr noundef nonnull dereferenceable(1) %11) #21
  %.not12 = icmp eq i32 %12, 0
  br i1 %.not12, label %._crit_edge, label %13

13:                                               ; preds = %8
  %14 = load ptr, ptr %.01114, align 8, !tbaa !47
  %.not = icmp eq ptr %14, null
  br i1 %.not, label %._crit_edge, label %8, !llvm.loop !193

._crit_edge:                                      ; preds = %13, %8, %2
  %.011.lcssa = phi ptr [ null, %2 ], [ %.01114, %8 ], [ null, %13 ]
  call void @free(ptr noundef %4) #19
  call void @strbuf_release(ptr noundef nonnull %3) #19
  call void @llvm.lifetime.end.p0(i64 24, ptr nonnull %3) #19
  ret ptr %.011.lcssa
}